target datalayout = "e-m:e-p270:32:32-p271:32:32-p272:64:64-i64:64-i128:128-f80:128-n8:16:32:64-S128"
target triple = "x86_64-unknown-linux-gnu"

%"class.icu_75::UObject" = type { ptr }
%"class.icu_75::UVector" = type { %"class.icu_75::UObject", i32, i32, ptr, ptr, ptr }
%"class.icu_75::TransliteratorRegistry" = type { [8 x i8], %"class.icu_75::Hashtable", %"class.icu_75::Hashtable", %"class.icu_75::UVector", %"class.icu_75::Hashtable" }
%"class.icu_75::Hashtable" = type { ptr, %struct.UHashtable }
%struct.UHashtable = type { ptr, ptr, ptr, ptr, ptr, ptr, i32, i32, i32, i32, float, float, i8, i8 }

; Function Attrs: mustprogress nounwind uwtable
define linkonce_odr void @_ZN6icu_759HashtableD2Ev(ptr noundef nonnull align 8 dereferenceable(88) %this) unnamed_addr #0 comdat align 2 personality ptr @__gxx_personality_v0 {
entry:
  %this.addr = alloca ptr, align 8
  store ptr %this, ptr %this.addr, align 8
  %this1 = load ptr, ptr %this.addr, align 8
  %hash = getelementptr inbounds %"class.icu_75::Hashtable", ptr %this1, i32 0, i32 0
  %0 = load ptr, ptr %hash, align 8
  %cmp = icmp ne ptr %0, null
  br i1 %cmp, label %if.then, label %if.end

if.then:                                          ; preds = %entry
  %hash2 = getelementptr inbounds %"class.icu_75::Hashtable", ptr %this1, i32 0, i32 0
  %1 = load ptr, ptr %hash2, align 8
  invoke void @uhash_close_75(ptr noundef %1)
          to label %invoke.cont unwind label %terminate.lpad

invoke.cont:                                      ; preds = %if.then
  br label %if.end

if.end:                                           ; preds = %invoke.cont, %entry
  ret void

terminate.lpad:                                   ; preds = %if.then
  %2 = landingpad { ptr, i32 }
          catch ptr null
  %3 = extractvalue { ptr, i32 } %2, 0
  call void @__clang_call_terminate(ptr %3) #11
  unreachable
}

; Function Attrs: mustprogress nounwind uwtable
define void @_ZN6icu_7522TransliteratorRegistryD2Ev(ptr noundef nonnull align 8 dereferenceable(312) %this) unnamed_addr #0 align 2 {
entry:
  %this.addr = alloca ptr, align 8
  store ptr %this, ptr %this.addr, align 8
  %this1 = load ptr, ptr %this.addr, align 8
  %availableIDs = getelementptr inbounds %"class.icu_75::TransliteratorRegistry", ptr %this1, i32 0, i32 4
  call void @_ZN6icu_759HashtableD2Ev(ptr noundef nonnull align 8 dereferenceable(88) %availableIDs) #9
  %variantList = getelementptr inbounds %"class.icu_75::TransliteratorRegistry", ptr %this1, i32 0, i32 3
  call void @_ZN6icu_757UVectorD1Ev(ptr noundef nonnull align 8 dereferenceable(40) %variantList) #9
  %specDAG = getelementptr inbounds %"class.icu_75::TransliteratorRegistry", ptr %this1, i32 0, i32 2
  call void @_ZN6icu_759HashtableD2Ev(ptr noundef nonnull align 8 dereferenceable(88) %specDAG) #9
  %registry = getelementptr inbounds %"class.icu_75::TransliteratorRegistry", ptr %this1, i32 0, i32 1
  call void @_ZN6icu_759HashtableD2Ev(ptr noundef nonnull align 8 dereferenceable(88) %registry) #9
  ret void
}