; Function Attrs: mustprogress nounwind uwtable
define void @_ZN6icu_7522TransliteratorRegistryD2Ev(ptr noundef nonnull align 8 dereferenceable(312) %this) unnamed_addr #0 align 2 personality ptr @__gxx_personality_v0 {
entry:
  %availableIDs = getelementptr inbounds i8, ptr %this, i64 224
  %0 = load ptr, ptr %availableIDs, align 8
  %cmp.not.i = icmp eq ptr %0, null
  br i1 %cmp.not.i, label %_ZN6icu_759HashtableD2Ev.exit, label %if.then.i

if.then.i:                                        ; preds = %entry
  invoke void @uhash_close_75(ptr noundef nonnull %0)
          to label %_ZN6icu_759HashtableD2Ev.exit unwind label %terminate.lpad.i

terminate.lpad.i:                                 ; preds = %if.then.i
  %1 = landingpad { ptr, i32 }
          catch ptr null
  %2 = extractvalue { ptr, i32 } %1, 0
  tail call void @__clang_call_terminate(ptr %2) #17
  unreachable

_ZN6icu_759HashtableD2Ev.exit:                    ; preds = %entry, %if.then.i
  %variantList = getelementptr inbounds i8, ptr %this, i64 184
  tail call void @_ZN6icu_757UVectorD1Ev(ptr noundef nonnull align 8 dereferenceable(40) %variantList) #15
  %specDAG = getelementptr inbounds i8, ptr %this, i64 96
  %3 = load ptr, ptr %specDAG, align 8
  %cmp.not.i1 = icmp eq ptr %3, null
  br i1 %cmp.not.i1, label %_ZN6icu_759HashtableD2Ev.exit4, label %if.then.i2

if.then.i2:                                       ; preds = %_ZN6icu_759HashtableD2Ev.exit
  invoke void @uhash_close_75(ptr noundef nonnull %3)
          to label %_ZN6icu_759HashtableD2Ev.exit4 unwind label %terminate.lpad.i3

terminate.lpad.i3:                                ; preds = %if.then.i2
  %4 = landingpad { ptr, i32 }
          catch ptr null
  %5 = extractvalue { ptr, i32 } %4, 0
  tail call void @__clang_call_terminate(ptr %5) #17
  unreachable

_ZN6icu_759HashtableD2Ev.exit4:                   ; preds = %_ZN6icu_759HashtableD2Ev.exit, %if.then.i2
  %registry = getelementptr inbounds i8, ptr %this, i64 8
  %6 = load ptr, ptr %registry, align 8
  %cmp.not.i5 = icmp eq ptr %6, null
  br i1 %cmp.not.i5, label %_ZN6icu_759HashtableD2Ev.exit8, label %if.then.i6

if.then.i6:                                       ; preds = %_ZN6icu_759HashtableD2Ev.exit4
  invoke void @uhash_close_75(ptr noundef nonnull %6)
          to label %_ZN6icu_759HashtableD2Ev.exit8 unwind label %terminate.lpad.i7

terminate.lpad.i7:                                ; preds = %if.then.i6
  %7 = landingpad { ptr, i32 }
          catch ptr null
  %8 = extractvalue { ptr, i32 } %7, 0
  tail call void @__clang_call_terminate(ptr %8) #17
  unreachable

_ZN6icu_759HashtableD2Ev.exit8:                   ; preds = %_ZN6icu_759HashtableD2Ev.exit4, %if.then.i6
  ret void
}